; Function Attrs: mustprogress uwtable
define void @_ZN6icu_7513MeasureFormat17adoptNumberFormatEPNS_12NumberFormatER10UErrorCode(ptr nocapture noundef nonnull align 8 dereferenceable(368) %this, ptr noundef %nfToAdopt, ptr nocapture noundef nonnull align 4 dereferenceable(4) %status) local_unnamed_addr #1 align 2 personality ptr @__gxx_personality_v0 {
entry:
  %0 = load i32, ptr %status, align 4
  %cmp.i = icmp slt i32 %0, 1
  br i1 %cmp.i, label %if.end, label %cleanup

if.end:                                           ; preds = %entry
  %call2 = tail call noundef ptr @_ZN6icu_757UMemorynwEm(i64 noundef 32) #16
  %new.isnull = icmp eq ptr %call2, null
  br i1 %new.isnull, label %if.then7, label %if.end8

if.then7:                                         ; preds = %if.end
  store i32 7, ptr %status, align 4
  br label %cleanup

if.end8:                                          ; preds = %if.end
  %softRefCount.i.i = getelementptr inbounds i8, ptr %call2, i64 8
  tail call void @llvm.memset.p0.i64(ptr noundef nonnull align 8 dereferenceable(16) %softRefCount.i.i, i8 0, i64 16, i1 false)
  store ptr getelementptr inbounds ({ [5 x ptr] }, ptr @_ZTVN6icu_7518SharedNumberFormatE, i64 0, i32 0, i64 2), ptr %call2, align 8
  %ptr.i = getelementptr inbounds i8, ptr %call2, i64 24
  store ptr %nfToAdopt, ptr %ptr.i, align 8
  %numberFormat = getelementptr inbounds i8, ptr %this, i64 336
  %1 = load ptr, ptr %numberFormat, align 8
  %cmp.not.i = icmp eq ptr %1, %call2
  br i1 %cmp.not.i, label %_ZN6icu_7512LocalPointerINS_12NumberFormatEED2Ev.exit8, label %if.then.i

if.then.i:                                        ; preds = %if.end8
  %cmp1.not.i = icmp eq ptr %1, null
  br i1 %cmp1.not.i, label %if.then4.i, label %if.then2.i

if.then2.i:                                       ; preds = %if.then.i
  tail call void @_ZNK6icu_7512SharedObject9removeRefEv(ptr noundef nonnull align 8 dereferenceable(24) %1)
  br label %if.then4.i

if.then4.i:                                       ; preds = %if.then2.i, %if.then.i
  store ptr %call2, ptr %numberFormat, align 8
  tail call void @_ZNK6icu_7512SharedObject6addRefEv(ptr noundef nonnull align 8 dereferenceable(24) %call2)
  br label %_ZN6icu_7512LocalPointerINS_12NumberFormatEED2Ev.exit8

cleanup:                                          ; preds = %entry, %if.then7
  %isnull.i4 = icmp eq ptr %nfToAdopt, null
  br i1 %isnull.i4, label %_ZN6icu_7512LocalPointerINS_12NumberFormatEED2Ev.exit8, label %delete.notnull.i5

delete.notnull.i5:                                ; preds = %cleanup
  %vtable.i6 = load ptr, ptr %nfToAdopt, align 8
  %vfn.i7 = getelementptr inbounds i8, ptr %vtable.i6, i64 8
  %2 = load ptr, ptr %vfn.i7, align 8
  tail call void %2(ptr noundef nonnull align 8 dereferenceable(356) %nfToAdopt) #16
  br label %_ZN6icu_7512LocalPointerINS_12NumberFormatEED2Ev.exit8

_ZN6icu_7512LocalPointerINS_12NumberFormatEED2Ev.exit8: ; preds = %if.then4.i, %if.end8, %cleanup, %delete.notnull.i5
  ret void
}